; Function Attrs: nounwind uwtable
define internal void @handle_configure_zxdg_decoration(ptr noundef %0, ptr readnone captures(none) %1, i32 noundef %2) #0 {
  %4 = getelementptr inbounds nuw i8, ptr %0, i64 392
  %5 = load ptr, ptr %4, align 8
  %6 = tail call ptr @SDL_GetVideoDevice() #15
  %7 = icmp eq i32 %2, 1
  br i1 %7, label %8, label %24

8:                                                ; preds = %3
  %9 = getelementptr inbounds nuw i8, ptr %0, i64 72
  %10 = load i64, ptr %9, align 8
  %11 = and i64 %10, 16
  %.not = icmp eq i64 %11, 0
  br i1 %.not, label %12, label %24

12:                                               ; preds = %8
  %13 = getelementptr inbounds nuw i8, ptr %5, i64 8
  %14 = load ptr, ptr %13, align 8
  %15 = tail call zeroext i1 @Wayland_LoadLibdecor(ptr noundef %14, i1 noundef zeroext true) #15
  br i1 %15, label %16, label %24

16:                                               ; preds = %12
  %17 = load ptr, ptr @WAYLAND_wl_display_roundtrip, align 8
  %18 = load ptr, ptr %13, align 8
  %19 = getelementptr inbounds nuw i8, ptr %18, i64 8
  %20 = load ptr, ptr %19, align 8
  %21 = tail call i32 %17(ptr noundef %20) #15
  tail call void @Wayland_HideWindow(ptr noundef %6, ptr noundef nonnull %0)
  %22 = getelementptr inbounds nuw i8, ptr %5, i64 56
  tail call void @llvm.memset.p0.i64(ptr noundef nonnull align 8 dereferenceable(32) %22, i8 0, i64 32, i1 false)
  %23 = getelementptr inbounds nuw i8, ptr %5, i64 88
  store i32 3, ptr %23, align 8
  tail call void @Wayland_ShowWindow(ptr noundef %6, ptr noundef nonnull %0)
  br label %24

24:                                               ; preds = %3, %16, %12, %8
  ret void
}